; ModuleID = 'bench/libigl/original/point_in_circle.ll'
source_filename = "bench/libigl/original/point_in_circle.ll"
target datalayout = "e-m:e-p270:32:32-p271:32:32-p272:64:64-i64:64-i128:128-f80:128-n8:16:32:64-S128"
target triple = "x86_64-pc-linux-gnu"

; Function Attrs: mustprogress nofree norecurse nosync nounwind willreturn memory(none) uwtable
define dso_local noundef zeroext i1 @_ZN3igl15point_in_circleEddddd(double noundef %0, double noundef %1, double noundef %2, double noundef %3, double noundef %4) local_unnamed_addr #0 {
  %6 = fsub double %0, %2
  %7 = fsub double %1, %3
  %8 = fmul double %7, %7
  %9 = tail call double @llvm.fmuladd.f64(double %6, double %6, double %8)
  %10 = fneg double %4
  %11 = tail call double @llvm.fmuladd.f64(double %10, double %4, double %9)
  %12 = fcmp olt double %11, 0.000000e+00
  ret i1 %12
}

; Function Attrs: mustprogress nocallback nofree nosync nounwind speculatable willreturn memory(none)
declare double @llvm.fmuladd.f64(double, double, double) #1


!llvm.module.flags = !{!0, !1, !2, !3}

!0 = !{i32 1, !"wchar_size", i32 4}
!1 = !{i32 8, !"PIC Level", i32 2}
!2 = !{i32 7, !"PIE Level", i32 2}
!3 = !{i32 7, !"uwtable", i32 2}
